; Function Attrs: nounwind uwtable
define hidden noalias ptr @mi_heap_strndup(ptr noundef %0, ptr noundef %1, i64 noundef %2) local_unnamed_addr #3 {
  %4 = icmp eq ptr %1, null
  br i1 %4, label %26, label %5

5:                                                ; preds = %3
  %6 = tail call i64 @_mi_strnlen(ptr noundef nonnull %1, i64 noundef %2) #19
  %7 = add i64 %6, 1
  %8 = icmp ult i64 %7, 1025
  br i1 %8, label %9, label %mi_heap_malloc.exit, !prof !8

9:                                                ; preds = %5
  %10 = add nsw i64 %6, 8
  %11 = lshr i64 %10, 3
  %12 = getelementptr inbounds nuw i8, ptr %0, i64 232
  %13 = getelementptr inbounds nuw [129 x ptr], ptr %12, i64 0, i64 %11
  %14 = load ptr, ptr %13, align 8, !tbaa !9
  %15 = getelementptr inbounds nuw i8, ptr %14, i64 8
  %16 = load ptr, ptr %15, align 8, !tbaa !11
  %17 = icmp eq ptr %16, null
  br i1 %17, label %mi_heap_malloc.exit, label %mi_heap_malloc.exit.thread, !prof !17

mi_heap_malloc.exit.thread:                       ; preds = %9
  %.val.i.i.i.i.i = load i64, ptr %16, align 8, !tbaa !18
  %18 = inttoptr i64 %.val.i.i.i.i.i to ptr
  store ptr %18, ptr %15, align 8, !tbaa !11
  %19 = getelementptr inbounds nuw i8, ptr %14, i64 24
  %20 = load i16, ptr %19, align 8, !tbaa !20
  %21 = add i16 %20, 1
  store i16 %21, ptr %19, align 8, !tbaa !20
  br label %24

mi_heap_malloc.exit:                              ; preds = %5, %9
  %22 = tail call noalias ptr @_mi_malloc_generic(ptr noundef %0, i64 noundef %7, i1 noundef zeroext false, i64 noundef 0) #19
  %23 = icmp eq ptr %22, null
  br i1 %23, label %26, label %24

24:                                               ; preds = %mi_heap_malloc.exit.thread, %mi_heap_malloc.exit
  %.0.i.i.i15 = phi ptr [ %16, %mi_heap_malloc.exit.thread ], [ %22, %mi_heap_malloc.exit ]
  tail call void @llvm.memcpy.p0.p0.i64(ptr nonnull align 1 %.0.i.i.i15, ptr nonnull readonly align 1 %1, i64 %6, i1 false)
  %25 = getelementptr inbounds nuw i8, ptr %.0.i.i.i15, i64 %6
  store i8 0, ptr %25, align 1, !tbaa !29
  br label %26

26:                                               ; preds = %24, %mi_heap_malloc.exit, %3
  %.0 = phi ptr [ null, %3 ], [ %.0.i.i.i15, %24 ], [ null, %mi_heap_malloc.exit ]
  ret ptr %.0
}